target datalayout = "e-m:e-p270:32:32-p271:32:32-p272:64:64-i64:64-i128:128-f80:128-n8:16:32:64-S128"
target triple = "x86_64-pc-linux-gnu"

%struct.strbuf = type { i64, i64, ptr }

@sq_quote_buf_pretty.ok_punct = internal constant [11 x i8] c"+,-./:=@_^\00", align 1
@.str.2 = private unnamed_addr constant [3 x i8] c"''\00", align 1
@sane_ctype = external constant [256 x i8], align 16

; Function Attrs: inlinehint nounwind uwtable
define internal void @strbuf_addstr(ptr noundef %0, ptr noundef %1) #3 {
  %3 = alloca ptr, align 8
  %4 = alloca ptr, align 8
  store ptr %0, ptr %3, align 8, !tbaa !4
  store ptr %1, ptr %4, align 8, !tbaa !9
  %5 = load ptr, ptr %3, align 8, !tbaa !4
  %6 = load ptr, ptr %4, align 8, !tbaa !9
  %7 = load ptr, ptr %4, align 8, !tbaa !9
  %8 = call i64 @strlen(ptr noundef %7) #10
  call void @strbuf_add(ptr noundef %5, ptr noundef %6, i64 noundef %8)
  ret void
}

; Function Attrs: inlinehint nounwind uwtable
define internal i64 @strbuf_avail(ptr noundef %0) #3 {
  %2 = alloca ptr, align 8
  store ptr %0, ptr %2, align 8, !tbaa !4
  %3 = load ptr, ptr %2, align 8, !tbaa !4
  %4 = getelementptr inbounds nuw %struct.strbuf, ptr %3, i32 0, i32 0
  %5 = load i64, ptr %4, align 8, !tbaa !37
  %6 = icmp ne i64 %5, 0
  br i1 %6, label %7, label %16

7:                                                ; preds = %1
  %8 = load ptr, ptr %2, align 8, !tbaa !4
  %9 = getelementptr inbounds nuw %struct.strbuf, ptr %8, i32 0, i32 0
  %10 = load i64, ptr %9, align 8, !tbaa !37
  %11 = load ptr, ptr %2, align 8, !tbaa !4
  %12 = getelementptr inbounds nuw %struct.strbuf, ptr %11, i32 0, i32 1
  %13 = load i64, ptr %12, align 8, !tbaa !21
  %14 = sub i64 %10, %13
  %15 = sub i64 %14, 1
  br label %17

16:                                               ; preds = %1
  br label %17

17:                                               ; preds = %16, %7
  %18 = phi i64 [ %15, %7 ], [ 0, %16 ]
  ret i64 %18
}

; Function Attrs: nounwind uwtable
define dso_local void @sq_quote_buf_pretty(ptr noundef %0, ptr noundef %1) #0 {
  %3 = alloca ptr, align 8
  %4 = alloca ptr, align 8
  %5 = alloca ptr, align 8
  %6 = alloca i32, align 4
  store ptr %0, ptr %3, align 8, !tbaa !4
  store ptr %1, ptr %4, align 8, !tbaa !9
  call void @llvm.lifetime.start.p0(i64 8, ptr %5) #9
  %7 = load ptr, ptr %4, align 8, !tbaa !9
  %8 = load i8, ptr %7, align 1, !tbaa !14
  %9 = icmp ne i8 %8, 0
  br i1 %9, label %12, label %10

10:                                               ; preds = %2
  %11 = load ptr, ptr %3, align 8, !tbaa !4
  call void @strbuf_addstr(ptr noundef %11, ptr noundef @.str.2)
  store i32 1, ptr %6, align 4
  br label %43

12:                                               ; preds = %2
  %13 = load ptr, ptr %4, align 8, !tbaa !9
  store ptr %13, ptr %5, align 8, !tbaa !9
  br label %14

14:                                               ; preds = %37, %12
  %15 = load ptr, ptr %5, align 8, !tbaa !9
  %16 = load i8, ptr %15, align 1, !tbaa !14
  %17 = icmp ne i8 %16, 0
  br i1 %17, label %18, label %40

18:                                               ; preds = %14
  %19 = load ptr, ptr %5, align 8, !tbaa !9
  %20 = load i8, ptr %19, align 1, !tbaa !14
  %21 = zext i8 %20 to i64
  %22 = getelementptr inbounds nuw [256 x i8], ptr @sane_ctype, i64 0, i64 %21
  %23 = load i8, ptr %22, align 1, !tbaa !14
  %24 = zext i8 %23 to i32
  %25 = and i32 %24, 6
  %26 = icmp ne i32 %25, 0
  br i1 %26, label %36, label %27

27:                                               ; preds = %18
  %28 = load ptr, ptr %5, align 8, !tbaa !9
  %29 = load i8, ptr %28, align 1, !tbaa !14
  %30 = sext i8 %29 to i32
  %31 = call ptr @strchr(ptr noundef @sq_quote_buf_pretty.ok_punct, i32 noundef %30) #10
  %32 = icmp ne ptr %31, null
  br i1 %32, label %36, label %33

33:                                               ; preds = %27
  %34 = load ptr, ptr %3, align 8, !tbaa !4
  %35 = load ptr, ptr %4, align 8, !tbaa !9
  call void @sq_quote_buf(ptr noundef %34, ptr noundef %35)
  store i32 1, ptr %6, align 4
  br label %43

36:                                               ; preds = %27, %18
  br label %37

37:                                               ; preds = %36
  %38 = load ptr, ptr %5, align 8, !tbaa !9
  %39 = getelementptr inbounds nuw i8, ptr %38, i32 1
  store ptr %39, ptr %5, align 8, !tbaa !9
  br label %14, !llvm.loop !22

40:                                               ; preds = %14
  %41 = load ptr, ptr %3, align 8, !tbaa !4
  %42 = load ptr, ptr %4, align 8, !tbaa !9
  call void @strbuf_addstr(ptr noundef %41, ptr noundef %42)
  store i32 0, ptr %6, align 4
  br label %43

43:                                               ; preds = %40, %33, %10
  call void @llvm.lifetime.end.p0(i64 8, ptr %5) #9
  %44 = load i32, ptr %6, align 4
  switch i32 %44, label %46 [
    i32 0, label %45
    i32 1, label %45
  ]

45:                                               ; preds = %43, %43
  ret void

46:                                               ; preds = %43
  unreachable
}

; Function Attrs: inlinehint nounwind uwtable
define internal void @strbuf_addch(ptr noundef %0, i32 noundef %1) #3 {
  %3 = alloca ptr, align 8
  %4 = alloca i32, align 4
  store ptr %0, ptr %3, align 8, !tbaa !4
  store i32 %1, ptr %4, align 4, !tbaa !19
  %5 = load ptr, ptr %3, align 8, !tbaa !4
  %6 = call i64 @strbuf_avail(ptr noundef %5)
  %7 = icmp ne i64 %6, 0
  br i1 %7, label %10, label %8

8:                                                ; preds = %2
  %9 = load ptr, ptr %3, align 8, !tbaa !4
  call void @strbuf_grow(ptr noundef %9, i64 noundef 1)
  br label %10

10:                                               ; preds = %8, %2
  %11 = load i32, ptr %4, align 4, !tbaa !19
  %12 = trunc i32 %11 to i8
  %13 = load ptr, ptr %3, align 8, !tbaa !4
  %14 = getelementptr inbounds nuw %struct.strbuf, ptr %13, i32 0, i32 2
  %15 = load ptr, ptr %14, align 8, !tbaa !11
  %16 = load ptr, ptr %3, align 8, !tbaa !4
  %17 = getelementptr inbounds nuw %struct.strbuf, ptr %16, i32 0, i32 1
  %18 = load i64, ptr %17, align 8, !tbaa !21
  %19 = add i64 %18, 1
  store i64 %19, ptr %17, align 8, !tbaa !21
  %20 = getelementptr inbounds nuw i8, ptr %15, i64 %18
  store i8 %12, ptr %20, align 1, !tbaa !14
  %21 = load ptr, ptr %3, align 8, !tbaa !4
  %22 = getelementptr inbounds nuw %struct.strbuf, ptr %21, i32 0, i32 2
  %23 = load ptr, ptr %22, align 8, !tbaa !11
  %24 = load ptr, ptr %3, align 8, !tbaa !4
  %25 = getelementptr inbounds nuw %struct.strbuf, ptr %24, i32 0, i32 1
  %26 = load i64, ptr %25, align 8, !tbaa !21
  %27 = getelementptr inbounds nuw i8, ptr %23, i64 %26
  store i8 0, ptr %27, align 1, !tbaa !14
  ret void
}

; Function Attrs: nounwind uwtable
define dso_local void @sq_append_quote_argv_pretty(ptr noundef %0, ptr noundef %1) #0 {
  %3 = alloca ptr, align 8
  %4 = alloca ptr, align 8
  %5 = alloca i32, align 4
  store ptr %0, ptr %3, align 8, !tbaa !4
  store ptr %1, ptr %4, align 8, !tbaa !23
  call void @llvm.lifetime.start.p0(i64 4, ptr %5) #9
  store i32 0, ptr %5, align 4, !tbaa !19
  br label %6

6:                                                ; preds = %25, %2
  %7 = load ptr, ptr %4, align 8, !tbaa !23
  %8 = load i32, ptr %5, align 4, !tbaa !19
  %9 = sext i32 %8 to i64
  %10 = getelementptr inbounds ptr, ptr %7, i64 %9
  %11 = load ptr, ptr %10, align 8, !tbaa !9
  %12 = icmp ne ptr %11, null
  br i1 %12, label %13, label %28

13:                                               ; preds = %6
  %14 = load i32, ptr %5, align 4, !tbaa !19
  %15 = icmp sgt i32 %14, 0
  br i1 %15, label %16, label %18

16:                                               ; preds = %13
  %17 = load ptr, ptr %3, align 8, !tbaa !4
  call void @strbuf_addch(ptr noundef %17, i32 noundef 32)
  br label %18

18:                                               ; preds = %16, %13
  %19 = load ptr, ptr %3, align 8, !tbaa !4
  %20 = load ptr, ptr %4, align 8, !tbaa !23
  %21 = load i32, ptr %5, align 4, !tbaa !19
  %22 = sext i32 %21 to i64
  %23 = getelementptr inbounds ptr, ptr %20, i64 %22
  %24 = load ptr, ptr %23, align 8, !tbaa !9
  call void @sq_quote_buf_pretty(ptr noundef %19, ptr noundef %24)
  br label %25

25:                                               ; preds = %18
  %26 = load i32, ptr %5, align 4, !tbaa !19
  %27 = add nsw i32 %26, 1
  store i32 %27, ptr %5, align 4, !tbaa !19
  br label %6, !llvm.loop !26

28:                                               ; preds = %6
  call void @llvm.lifetime.end.p0(i64 4, ptr %5) #9
  ret void
}