; Function Attrs: nounwind uwtable
define dso_local void @sq_append_quote_argv_pretty(ptr noundef %0, ptr noundef readonly captures(none) %1) local_unnamed_addr #0 {
  %3 = load ptr, ptr %1, align 8, !tbaa !17
  %.not9 = icmp eq ptr %3, null
  br i1 %.not9, label %._crit_edge, label %.lr.ph

.lr.ph:                                           ; preds = %2
  %4 = getelementptr inbounds nuw i8, ptr %0, i64 8
  %5 = getelementptr inbounds nuw i8, ptr %0, i64 16
  br label %6

6:                                                ; preds = %.lr.ph, %sq_quote_buf_pretty.exit
  %7 = phi ptr [ %3, %.lr.ph ], [ %35, %sq_quote_buf_pretty.exit ]
  %indvars.iv = phi i64 [ 0, %.lr.ph ], [ %indvars.iv.next, %sq_quote_buf_pretty.exit ]
  %8 = getelementptr inbounds nuw ptr, ptr %1, i64 %indvars.iv
  %.not7 = icmp eq i64 %indvars.iv, 0
  br i1 %.not7, label %18, label %9

9:                                                ; preds = %6
  %10 = load i64, ptr %0, align 8, !tbaa !11
  %.not.i.i = icmp eq i64 %10, 0
  br i1 %.not.i.i, label %strbuf_avail.exit.thread.i, label %strbuf_avail.exit.i

strbuf_avail.exit.i:                              ; preds = %9
  %11 = load i64, ptr %4, align 8, !tbaa !12
  %.neg.i = add i64 %11, 1
  %.not.i = icmp eq i64 %10, %.neg.i
  br i1 %.not.i, label %strbuf_avail.exit.thread.i, label %strbuf_addch.exit

strbuf_avail.exit.thread.i:                       ; preds = %strbuf_avail.exit.i, %9
  tail call void @strbuf_grow(ptr noundef nonnull %0, i64 noundef 1) #12
  %.pre.i = load i64, ptr %4, align 8, !tbaa !12
  %.pre7.i = add i64 %.pre.i, 1
  br label %strbuf_addch.exit

strbuf_addch.exit:                                ; preds = %strbuf_avail.exit.i, %strbuf_avail.exit.thread.i
  %.pre-phi.i = phi i64 [ %.pre7.i, %strbuf_avail.exit.thread.i ], [ %.neg.i, %strbuf_avail.exit.i ]
  %12 = phi i64 [ %.pre.i, %strbuf_avail.exit.thread.i ], [ %11, %strbuf_avail.exit.i ]
  %13 = load ptr, ptr %5, align 8, !tbaa !4
  store i64 %.pre-phi.i, ptr %4, align 8, !tbaa !12
  %14 = getelementptr inbounds nuw i8, ptr %13, i64 %12
  store i8 32, ptr %14, align 1, !tbaa !13
  %15 = load ptr, ptr %5, align 8, !tbaa !4
  %16 = load i64, ptr %4, align 8, !tbaa !12
  %17 = getelementptr inbounds nuw i8, ptr %15, i64 %16
  store i8 0, ptr %17, align 1, !tbaa !13
  %.pre = load ptr, ptr %8, align 8, !tbaa !17
  br label %18

18:                                               ; preds = %strbuf_addch.exit, %6
  %19 = phi ptr [ %.pre, %strbuf_addch.exit ], [ %7, %6 ]
  %20 = load i8, ptr %19, align 1, !tbaa !13
  %.not.i8 = icmp eq i8 %20, 0
  br i1 %.not.i8, label %21, label %.preheader.i

21:                                               ; preds = %18
  tail call void @strbuf_add(ptr noundef %0, ptr noundef nonnull @.str.2, i64 noundef 2) #12
  br label %sq_quote_buf_pretty.exit

.preheader.i:                                     ; preds = %18, %30
  %.015.i = phi ptr [ %31, %30 ], [ %19, %18 ]
  %22 = phi i8 [ %.pr.i, %30 ], [ %20, %18 ]
  %23 = zext i8 %22 to i64
  %24 = getelementptr inbounds nuw [256 x i8], ptr @sane_ctype, i64 0, i64 %23
  %25 = load i8, ptr %24, align 1, !tbaa !13
  %26 = and i8 %25, 6
  %.not13.i = icmp eq i8 %26, 0
  br i1 %.not13.i, label %27, label %30

27:                                               ; preds = %.preheader.i
  %28 = sext i8 %22 to i32
  %memchr.i = tail call ptr @memchr(ptr noundef nonnull dereferenceable(1) @sq_quote_buf_pretty.ok_punct, i32 %28, i64 11)
  %.not14.i = icmp eq ptr %memchr.i, null
  br i1 %.not14.i, label %29, label %30

29:                                               ; preds = %27
  tail call void @sq_quote_buf(ptr noundef %0, ptr noundef nonnull %19)
  br label %sq_quote_buf_pretty.exit

30:                                               ; preds = %27, %.preheader.i
  %31 = getelementptr inbounds nuw i8, ptr %.015.i, i64 1
  %.pr.i = load i8, ptr %31, align 1, !tbaa !13
  %.not12.i = icmp eq i8 %.pr.i, 0
  br i1 %.not12.i, label %32, label %.preheader.i, !llvm.loop !16

32:                                               ; preds = %30
  %33 = tail call i64 @strlen(ptr noundef nonnull dereferenceable(1) %19) #13
  tail call void @strbuf_add(ptr noundef %0, ptr noundef nonnull %19, i64 noundef %33) #12
  br label %sq_quote_buf_pretty.exit

sq_quote_buf_pretty.exit:                         ; preds = %21, %29, %32
  %indvars.iv.next = add nuw nsw i64 %indvars.iv, 1
  %34 = getelementptr inbounds nuw ptr, ptr %1, i64 %indvars.iv.next
  %35 = load ptr, ptr %34, align 8, !tbaa !17
  %.not = icmp eq ptr %35, null
  br i1 %.not, label %._crit_edge, label %6, !llvm.loop !19

._crit_edge:                                      ; preds = %sq_quote_buf_pretty.exit, %2
  ret void
}